target datalayout = "e-m:e-p270:32:32-p271:32:32-p272:64:64-i64:64-i128:128-f80:128-n8:16:32:64-S128"
target triple = "x86_64-unknown-linux-gnu"

%"class.icu_75::StringCharacterIterator" = type { %"class.icu_75::UCharCharacterIterator", %"class.icu_75::UnicodeString" }
%"class.icu_75::UCharCharacterIterator" = type { %"class.icu_75::CharacterIterator", ptr }
%"class.icu_75::CharacterIterator" = type { %"class.icu_75::ForwardCharacterIterator", i32, i32, i32, i32 }
%"class.icu_75::ForwardCharacterIterator" = type { %"class.icu_75::UObject" }
%"class.icu_75::UObject" = type { ptr }
%"class.icu_75::UnicodeString" = type { %"class.icu_75::Replaceable", %"union.icu_75::UnicodeString::StackBufferOrFields" }
%"class.icu_75::Replaceable" = type { %"class.icu_75::UObject" }
%"union.icu_75::UnicodeString::StackBufferOrFields" = type { %struct.anon.0, [32 x i8] }
%struct.anon.0 = type { i16, i32, i32, ptr }
%struct.anon = type { i16, [27 x i16] }

; Function Attrs: mustprogress nounwind uwtable
define linkonce_odr noundef ptr @_ZNK6icu_7513UnicodeString9getBufferEv(ptr noundef nonnull align 8 dereferenceable(64) %this) #0 comdat align 2 {
entry:
  %retval = alloca ptr, align 8
  %this.addr = alloca ptr, align 8
  store ptr %this, ptr %this.addr, align 8
  %this1 = load ptr, ptr %this.addr, align 8
  %fUnion = getelementptr inbounds %"class.icu_75::UnicodeString", ptr %this1, i32 0, i32 1
  %fLengthAndFlags = getelementptr inbounds %struct.anon.0, ptr %fUnion, i32 0, i32 0
  %0 = load i16, ptr %fLengthAndFlags, align 8
  %conv = sext i16 %0 to i32
  %and = and i32 %conv, 17
  %tobool = icmp ne i32 %and, 0
  br i1 %tobool, label %if.then, label %if.else

if.then:                                          ; preds = %entry
  store ptr null, ptr %retval, align 8
  br label %return

if.else:                                          ; preds = %entry
  %fUnion2 = getelementptr inbounds %"class.icu_75::UnicodeString", ptr %this1, i32 0, i32 1
  %fLengthAndFlags3 = getelementptr inbounds %struct.anon.0, ptr %fUnion2, i32 0, i32 0
  %1 = load i16, ptr %fLengthAndFlags3, align 8
  %conv4 = sext i16 %1 to i32
  %and5 = and i32 %conv4, 2
  %tobool6 = icmp ne i32 %and5, 0
  br i1 %tobool6, label %if.then7, label %if.else9

if.then7:                                         ; preds = %if.else
  %fUnion8 = getelementptr inbounds %"class.icu_75::UnicodeString", ptr %this1, i32 0, i32 1
  %fBuffer = getelementptr inbounds %struct.anon, ptr %fUnion8, i32 0, i32 1
  %arraydecay = getelementptr inbounds [27 x i16], ptr %fBuffer, i64 0, i64 0
  store ptr %arraydecay, ptr %retval, align 8
  br label %return

if.else9:                                         ; preds = %if.else
  %fUnion10 = getelementptr inbounds %"class.icu_75::UnicodeString", ptr %this1, i32 0, i32 1
  %fArray = getelementptr inbounds %struct.anon.0, ptr %fUnion10, i32 0, i32 3
  %2 = load ptr, ptr %fArray, align 8
  store ptr %2, ptr %retval, align 8
  br label %return

return:                                           ; preds = %if.else9, %if.then7, %if.then
  %3 = load ptr, ptr %retval, align 8
  ret ptr %3
}

; Function Attrs: mustprogress uwtable
define void @_ZN6icu_7523StringCharacterIteratorC2ERKS0_(ptr noundef nonnull align 8 dereferenceable(96) %this, ptr noundef nonnull align 8 dereferenceable(96) %that) unnamed_addr #1 align 2 personality ptr @__gxx_personality_v0 {
entry:
  %this.addr = alloca ptr, align 8
  %that.addr = alloca ptr, align 8
  %exn.slot = alloca ptr, align 8
  %ehselector.slot = alloca i32, align 4
  store ptr %this, ptr %this.addr, align 8
  store ptr %that, ptr %that.addr, align 8
  %this1 = load ptr, ptr %this.addr, align 8
  %0 = load ptr, ptr %that.addr, align 8
  call void @_ZN6icu_7522UCharCharacterIteratorC2ERKS0_(ptr noundef nonnull align 8 dereferenceable(32) %this1, ptr noundef nonnull align 8 dereferenceable(32) %0)
  store ptr getelementptr inbounds ({ [29 x ptr] }, ptr @_ZTVN6icu_7523StringCharacterIteratorE, i32 0, i32 0, i32 2), ptr %this1, align 8
  %text = getelementptr inbounds %"class.icu_75::StringCharacterIterator", ptr %this1, i32 0, i32 1
  %1 = load ptr, ptr %that.addr, align 8
  %text2 = getelementptr inbounds %"class.icu_75::StringCharacterIterator", ptr %1, i32 0, i32 1
  invoke void @_ZN6icu_7513UnicodeStringC1ERKS0_(ptr noundef nonnull align 8 dereferenceable(64) %text, ptr noundef nonnull align 8 dereferenceable(64) %text2)
          to label %invoke.cont unwind label %lpad

invoke.cont:                                      ; preds = %entry
  %text3 = getelementptr inbounds %"class.icu_75::StringCharacterIterator", ptr %this1, i32 0, i32 1
  %call = invoke noundef ptr @_ZNK6icu_7513UnicodeString9getBufferEv(ptr noundef nonnull align 8 dereferenceable(64) %text3)
          to label %invoke.cont5 unwind label %lpad4

invoke.cont5:                                     ; preds = %invoke.cont
  %text6 = getelementptr inbounds %"class.icu_75::UCharCharacterIterator", ptr %this1, i32 0, i32 1
  store ptr %call, ptr %text6, align 8
  ret void

lpad:                                             ; preds = %entry
  %2 = landingpad { ptr, i32 }
          cleanup
  %3 = extractvalue { ptr, i32 } %2, 0
  store ptr %3, ptr %exn.slot, align 8
  %4 = extractvalue { ptr, i32 } %2, 1
  store i32 %4, ptr %ehselector.slot, align 4
  br label %ehcleanup

lpad4:                                            ; preds = %invoke.cont
  %5 = landingpad { ptr, i32 }
          cleanup
  %6 = extractvalue { ptr, i32 } %5, 0
  store ptr %6, ptr %exn.slot, align 8
  %7 = extractvalue { ptr, i32 } %5, 1
  store i32 %7, ptr %ehselector.slot, align 4
  call void @_ZN6icu_7513UnicodeStringD1Ev(ptr noundef nonnull align 8 dereferenceable(64) %text) #4
  br label %ehcleanup

ehcleanup:                                        ; preds = %lpad4, %lpad
  call void @_ZN6icu_7522UCharCharacterIteratorD2Ev(ptr noundef nonnull align 8 dereferenceable(32) %this1) #4
  br label %eh.resume

eh.resume:                                        ; preds = %ehcleanup
  %exn = load ptr, ptr %exn.slot, align 8
  %sel = load i32, ptr %ehselector.slot, align 4
  %lpad.val = insertvalue { ptr, i32 } poison, ptr %exn, 0
  %lpad.val7 = insertvalue { ptr, i32 } %lpad.val, i32 %sel, 1
  resume { ptr, i32 } %lpad.val7
}